; Function Attrs: mustprogress norecurse uwtable
define internal fastcc void @_ZL17reallocate_nblistP8t_nblist(ptr noundef %0) unnamed_addr #20 personality ptr @__gxx_personality_v0 {
  %2 = getelementptr inbounds i8, ptr %0, i64 16
  %3 = getelementptr inbounds i8, ptr %0, i64 4
  %4 = load i32, ptr %3, align 4
  %5 = sext i32 %4 to i64
  %6 = getelementptr inbounds i8, ptr %0, i64 24
  %7 = load ptr, ptr %6, align 8
  %8 = load ptr, ptr %2, align 8
  %9 = ptrtoint ptr %7 to i64
  %10 = ptrtoint ptr %8 to i64
  %11 = sub i64 %9, %10
  %12 = ashr exact i64 %11, 2
  %13 = icmp ult i64 %12, %5
  br i1 %13, label %14, label %16

14:                                               ; preds = %1
  %15 = sub nsw i64 %5, %12
  tail call void @_ZNSt6vectorIiSaIiEE17_M_default_appendEm(ptr noundef nonnull align 8 dereferenceable(24) %2, i64 noundef %15)
  %.pre = load i32, ptr %3, align 4
  %.pre16 = sext i32 %.pre to i64
  br label %_ZNSt6vectorIiSaIiEE6resizeEm.exit

16:                                               ; preds = %1
  %17 = icmp ugt i64 %12, %5
  br i1 %17, label %18, label %_ZNSt6vectorIiSaIiEE6resizeEm.exit

18:                                               ; preds = %16
  %19 = getelementptr inbounds i32, ptr %8, i64 %5
  %.not.i.i = icmp eq ptr %7, %19
  br i1 %.not.i.i, label %_ZNSt6vectorIiSaIiEE6resizeEm.exit, label %20

20:                                               ; preds = %18
  store ptr %19, ptr %6, align 8
  br label %_ZNSt6vectorIiSaIiEE6resizeEm.exit

_ZNSt6vectorIiSaIiEE6resizeEm.exit:               ; preds = %14, %16, %18, %20
  %.pre-phi = phi i64 [ %.pre16, %14 ], [ %5, %16 ], [ %5, %18 ], [ %5, %20 ]
  %21 = phi i32 [ %.pre, %14 ], [ %4, %16 ], [ %4, %18 ], [ %4, %20 ]
  %22 = getelementptr inbounds i8, ptr %0, i64 40
  %23 = getelementptr inbounds i8, ptr %0, i64 48
  %24 = load ptr, ptr %23, align 8
  %25 = load ptr, ptr %22, align 8
  %26 = ptrtoint ptr %24 to i64
  %27 = ptrtoint ptr %25 to i64
  %28 = sub i64 %26, %27
  %29 = ashr exact i64 %28, 2
  %30 = icmp ult i64 %29, %.pre-phi
  br i1 %30, label %31, label %33

31:                                               ; preds = %_ZNSt6vectorIiSaIiEE6resizeEm.exit
  %32 = sub nsw i64 %.pre-phi, %29
  tail call void @_ZNSt6vectorIiSaIiEE17_M_default_appendEm(ptr noundef nonnull align 8 dereferenceable(24) %22, i64 noundef %32)
  %.pre14 = load i32, ptr %3, align 4
  %.pre17 = sext i32 %.pre14 to i64
  br label %_ZNSt6vectorIiSaIiEE6resizeEm.exit9

33:                                               ; preds = %_ZNSt6vectorIiSaIiEE6resizeEm.exit
  %34 = icmp ugt i64 %29, %.pre-phi
  br i1 %34, label %35, label %_ZNSt6vectorIiSaIiEE6resizeEm.exit9

35:                                               ; preds = %33
  %36 = getelementptr inbounds i32, ptr %25, i64 %.pre-phi
  %.not.i.i8 = icmp eq ptr %24, %36
  br i1 %.not.i.i8, label %_ZNSt6vectorIiSaIiEE6resizeEm.exit9, label %37

37:                                               ; preds = %35
  store ptr %36, ptr %23, align 8
  br label %_ZNSt6vectorIiSaIiEE6resizeEm.exit9

_ZNSt6vectorIiSaIiEE6resizeEm.exit9:              ; preds = %31, %33, %35, %37
  %.pre-phi18 = phi i64 [ %.pre17, %31 ], [ %.pre-phi, %33 ], [ %.pre-phi, %35 ], [ %.pre-phi, %37 ]
  %38 = phi i32 [ %.pre14, %31 ], [ %21, %33 ], [ %21, %35 ], [ %21, %37 ]
  %39 = getelementptr inbounds i8, ptr %0, i64 64
  %40 = getelementptr inbounds i8, ptr %0, i64 72
  %41 = load ptr, ptr %40, align 8
  %42 = load ptr, ptr %39, align 8
  %43 = ptrtoint ptr %41 to i64
  %44 = ptrtoint ptr %42 to i64
  %45 = sub i64 %43, %44
  %46 = ashr exact i64 %45, 2
  %47 = icmp ult i64 %46, %.pre-phi18
  br i1 %47, label %48, label %50

48:                                               ; preds = %_ZNSt6vectorIiSaIiEE6resizeEm.exit9
  %49 = sub nsw i64 %.pre-phi18, %46
  tail call void @_ZNSt6vectorIiSaIiEE17_M_default_appendEm(ptr noundef nonnull align 8 dereferenceable(24) %39, i64 noundef %49)
  %.pre15 = load i32, ptr %3, align 4
  br label %_ZNSt6vectorIiSaIiEE6resizeEm.exit11

50:                                               ; preds = %_ZNSt6vectorIiSaIiEE6resizeEm.exit9
  %51 = icmp ugt i64 %46, %.pre-phi18
  br i1 %51, label %52, label %_ZNSt6vectorIiSaIiEE6resizeEm.exit11

52:                                               ; preds = %50
  %53 = getelementptr inbounds i32, ptr %42, i64 %.pre-phi18
  %.not.i.i10 = icmp eq ptr %41, %53
  br i1 %.not.i.i10, label %_ZNSt6vectorIiSaIiEE6resizeEm.exit11, label %54

54:                                               ; preds = %52
  store ptr %53, ptr %40, align 8
  br label %_ZNSt6vectorIiSaIiEE6resizeEm.exit11

_ZNSt6vectorIiSaIiEE6resizeEm.exit11:             ; preds = %48, %50, %52, %54
  %55 = phi i32 [ %.pre15, %48 ], [ %38, %50 ], [ %38, %52 ], [ %38, %54 ]
  %56 = getelementptr inbounds i8, ptr %0, i64 88
  %57 = add nsw i32 %55, 1
  %58 = sext i32 %57 to i64
  %59 = getelementptr inbounds i8, ptr %0, i64 96
  %60 = load ptr, ptr %59, align 8
  %61 = load ptr, ptr %56, align 8
  %62 = ptrtoint ptr %60 to i64
  %63 = ptrtoint ptr %61 to i64
  %64 = sub i64 %62, %63
  %65 = ashr exact i64 %64, 2
  %66 = icmp ult i64 %65, %58
  br i1 %66, label %67, label %69

67:                                               ; preds = %_ZNSt6vectorIiSaIiEE6resizeEm.exit11
  %68 = sub nsw i64 %58, %65
  tail call void @_ZNSt6vectorIiSaIiEE17_M_default_appendEm(ptr noundef nonnull align 8 dereferenceable(24) %56, i64 noundef %68)
  br label %_ZNSt6vectorIiSaIiEE6resizeEm.exit13

69:                                               ; preds = %_ZNSt6vectorIiSaIiEE6resizeEm.exit11
  %70 = icmp ugt i64 %65, %58
  br i1 %70, label %71, label %_ZNSt6vectorIiSaIiEE6resizeEm.exit13

71:                                               ; preds = %69
  %72 = getelementptr inbounds i32, ptr %61, i64 %58
  %.not.i.i12 = icmp eq ptr %60, %72
  br i1 %.not.i.i12, label %_ZNSt6vectorIiSaIiEE6resizeEm.exit13, label %73

73:                                               ; preds = %71
  store ptr %72, ptr %59, align 8
  br label %_ZNSt6vectorIiSaIiEE6resizeEm.exit13

_ZNSt6vectorIiSaIiEE6resizeEm.exit13:             ; preds = %67, %69, %71, %73
  ret void
}